Certificate:
    Data:
        Version: 3 (0x2)
        Serial Number:
            6c:6e:c9:bf:48:51:72:a5:4b:d4:0f:27:78:62:52:45
        Signature Algorithm: sha384WithRSAEncryption
        Issuer: C = BG, organizationIdentifier = NTRBG-203397356, O = Evrotrust Technologies JSC, OU = Evrotrust Qualified Root Authority, CN = Evrotrust RSA Root CA
        Validity
            Not Before: May 20 15:39:19 2016 GMT
            Not After : May 20 15:49:19 2036 GMT
        Subject: C = BG, organizationIdentifier = NTRBG-203397356, O = Evrotrust Technologies JSC, OU = Evrotrust Qualified Root Authority, CN = Evrotrust RSA Root CA
        Subject Public Key Info:
            Public Key Algorithm: rsaEncryption
                RSA Public-Key: (4096 bit)
                Modulus:
                    00:cf:9b:af:59:19:bb:73:47:52:74:9f:82:66:4e:
                    40:56:76:2b:04:79:49:45:33:4d:ab:db:8a:c2:6b:
                    2b:4b:51:6a:3f:99:90:19:e0:b7:0a:43:cd:26:b5:
                    39:cb:d4:d8:95:02:5e:36:47:7d:15:67:9f:8a:cf:
                    88:02:39:b2:01:10:f5:70:10:7d:c5:ec:a4:5e:1a:
                    7a:9f:df:9a:e8:e8:ac:15:17:0e:43:3d:b2:5c:da:
                    3c:16:4f:dd:89:53:26:b4:53:fa:b4:60:e3:f6:d0:
                    3e:7d:84:0a:f5:23:c4:05:f7:ad:97:cd:bc:72:68:
                    10:05:41:13:68:86:76:c1:2f:b1:34:cc:74:79:04:
                    cd:7f:2b:e4:10:59:67:56:d5:18:33:aa:c2:49:02:
                    47:d4:0e:0f:1c:f9:02:68:7d:0a:9b:c3:16:46:60:
                    40:70:c1:dd:a9:7d:5a:99:4f:85:fe:6f:6b:56:5a:
                    b4:a5:4c:2d:93:88:af:43:54:0c:42:3d:c7:c6:60:
                    90:c8:81:3f:7f:08:35:18:65:da:5e:19:5d:d5:fd:
                    ae:77:cb:56:55:9b:88:46:fc:f4:3b:62:66:7c:23:
                    cc:d5:32:18:0a:f8:b7:63:8f:6b:d5:7b:2d:fb:62:
                    f4:85:4d:cc:3e:64:c2:db:c6:d2:fd:dc:97:4e:b7:
                    32:97:17:6a:12:e4:5e:77:fa:40:6d:99:46:fe:c3:
                    76:0e:d9:a7:f6:7e:fe:0b:cc:a8:a1:ea:f5:56:ac:
                    f5:38:88:9e:52:7f:11:1b:79:7f:17:b9:34:74:58:
                    33:3b:db:91:6d:ba:67:74:8d:81:f1:89:e3:31:83:
                    95:f0:22:24:56:1d:01:7a:40:e1:bd:95:8b:05:a0:
                    9f:fa:7c:8f:c7:e9:f2:eb:7d:19:0d:83:a0:13:ae:
                    5e:be:00:ae:33:c4:49:bb:e0:1a:e7:a8:30:e9:f9:
                    0c:bd:cf:5f:f3:36:34:36:7f:c7:00:2c:ea:71:46:
                    2c:e2:f1:50:d2:42:84:b4:c3:d6:9e:8d:41:13:5c:
                    7d:9c:d3:1c:4f:67:62:3d:51:32:6f:5b:dc:85:25:
                    f8:a0:51:8d:0b:e2:e3:04:1d:a1:93:f6:f8:f2:b8:
                    57:ab:e7:12:45:16:0e:7c:df:b3:6f:bc:93:6b:de:
                    dd:bb:f8:0e:33:f0:ee:7e:ce:d2:43:86:95:93:db:
                    b5:b4:5a:0a:5c:a3:2f:97:71:18:de:3c:e0:00:bb:
                    9f:66:80:2a:d9:18:de:41:a0:9a:6d:71:eb:5f:79:
                    16:68:c8:96:2a:8b:eb:6f:5b:62:f5:90:a5:aa:87:
                    cb:40:22:6c:e8:9a:c3:18:2c:8a:b9:4e:88:75:20:
                    40:30:0f
                Exponent: 65537 (0x10001)
        X509v3 extensions:
            X509v3 Key Usage: critical
                Certificate Sign, CRL Sign
            X509v3 Basic Constraints: critical
                CA:TRUE
            X509v3 Subject Key Identifier: 
                74:5C:A1:40:73:2E:1F:E6:F9:3B:BC:AB:A0:A4:A7:54:44:74:4F:70
    Signature Algorithm: sha384WithRSAEncryption
         92:89:42:2b:98:02:98:ee:a9:f1:47:e6:35:86:d7:7b:b7:54:
         3b:c9:d0:a6:12:e3:1d:8f:fc:e6:50:39:96:d1:d9:fc:04:40:
         35:c1:04:e2:7d:09:d9:3b:2d:d1:fc:20:c9:8b:b1:e6:48:2b:
         67:12:6b:c2:4d:e2:03:90:36:95:71:dc:18:e6:03:43:5a:29:
         e3:f1:82:ff:31:ef:07:8e:24:f3:5a:0b:9f:99:85:8a:ed:44:
         a4:d3:06:78:19:ed:21:c6:77:53:ed:64:92:65:1e:83:12:7e:
         1d:7f:be:78:b1:64:37:85:8b:2d:4f:b1:a3:54:4b:23:ab:a1:
         92:e7:d2:56:0c:56:8a:f2:de:83:f4:98:43:f7:87:cb:e2:b8:
         7b:ac:12:c1:44:ac:c6:a2:d7:cc:d7:da:ea:5f:39:8b:fd:04:
         85:6e:77:c7:82:74:f1:99:4b:28:8a:18:bd:77:4f:1d:32:1a:
         f9:8f:df:e0:fc:b9:42:67:c6:29:89:ff:40:2e:cd:ad:d4:c1:
         3e:17:6a:62:be:0a:3e:1c:fd:8f:aa:d8:c7:9e:5a:41:c2:70:
         73:7e:1e:9c:80:b6:17:14:00:d5:95:57:63:b5:b9:c2:fa:64:
         0e:30:a6:71:58:7a:14:d7:c1:ea:ad:cf:00:e0:75:55:88:6b:
         2d:cb:9b:26:95:21:d7:df:69:76:84:13:87:f0:93:df:de:5e:
         a4:3a:c3:95:2e:36:43:6d:36:fa:24:b3:86:36:9e:ee:91:5b:
         b9:45:c4:cb:b0:68:b2:7a:c1:b8:82:38:d2:31:bb:cc:59:f4:
         4d:95:d2:9f:a3:f4:46:12:22:cb:32:63:9e:45:6b:62:ff:5b:
         79:b7:2f:db:c9:62:4b:b3:bb:5e:36:1e:21:e6:07:d5:31:e2:
         25:4c:de:f4:56:11:69:51:7e:22:41:dc:cf:bd:a3:ad:e6:45:
         2c:05:3c:aa:f9:c0:e2:0e:db:e9:73:af:1a:0c:5c:89:01:da:
         58:2a:e4:16:94:0e:f5:a1:3a:54:2c:d6:c0:dc:f5:e4:e7:7c:
         e6:43:0a:6b:e5:1f:8b:18:41:ea:77:2f:d3:2f:cb:58:6d:31:
         ef:8c:6d:fe:12:e2:f9:cd:8a:02:f6:de:f1:ed:de:37:d4:ec:
         f3:f0:ce:45:b2:5c:47:a1:4e:e6:0d:26:32:1e:85:bb:d3:28:
         f2:0b:e6:63:de:46:b3:18:98:6c:ed:70:6e:45:19:5a:e3:49:
         28:70:41:43:fa:93:3d:bf:0f:72:57:ce:8e:d1:90:57:a9:a6:
         50:c1:d2:f5:07:4e:5d:ac:90:a8:28:6d:01:a2:fd:d9:8c:e2:
         fc:28:67:45:32:ee:43:cd
-----BEGIN CERTIFICATE-----
MIIGADCCA+igAwIBAgIQbG7Jv0hRcqVL1A8neGJSRTANBgkqhkiG9w0BAQwFADCB
mTELMAkGA1UEBhMCQkcxGDAWBgNVBGETD05UUkJHLTIwMzM5NzM1NjEjMCEGA1UE
ChMaRXZyb3RydXN0IFRlY2hub2xvZ2llcyBKU0MxKzApBgNVBAsTIkV2cm90cnVz
dCBRdWFsaWZpZWQgUm9vdCBBdXRob3JpdHkxHjAcBgNVBAMTFUV2cm90cnVzdCBS
U0EgUm9vdCBDQTAeFw0xNjA1MjAxNTM5MTlaFw0zNjA1MjAxNTQ5MTlaMIGZMQsw
CQYDVQQGEwJCRzEYMBYGA1UEYRMPTlRSQkctMjAzMzk3MzU2MSMwIQYDVQQKExpF
dnJvdHJ1c3QgVGVjaG5vbG9naWVzIEpTQzErMCkGA1UECxMiRXZyb3RydXN0IFF1
YWxpZmllZCBSb290IEF1dGhvcml0eTEeMBwGA1UEAxMVRXZyb3RydXN0IFJTQSBS
b290IENBMIICIjANBgkqhkiG9w0BAQEFAAOCAg8AMIICCgKCAgEAz5uvWRm7c0dS
dJ+CZk5AVnYrBHlJRTNNq9uKwmsrS1FqP5mQGeC3CkPNJrU5y9TYlQJeNkd9FWef
is+IAjmyARD1cBB9xeykXhp6n9+a6OisFRcOQz2yXNo8Fk/diVMmtFP6tGDj9tA+
fYQK9SPEBfetl828cmgQBUETaIZ2wS+xNMx0eQTNfyvkEFlnVtUYM6rCSQJH1A4P
HPkCaH0Km8MWRmBAcMHdqX1amU+F/m9rVlq0pUwtk4ivQ1QMQj3HxmCQyIE/fwg1
GGXaXhld1f2ud8tWVZuIRvz0O2JmfCPM1TIYCvi3Y49r1Xst+2L0hU3MPmTC28bS
/dyXTrcylxdqEuRed/pAbZlG/sN2Dtmn9n7+C8yooer1Vqz1OIieUn8RG3l/F7k0
dFgzO9uRbbpndI2B8YnjMYOV8CIkVh0BekDhvZWLBaCf+nyPx+ny630ZDYOgE65e
vgCuM8RJu+Aa56gw6fkMvc9f8zY0Nn/HACzqcUYs4vFQ0kKEtMPWno1BE1x9nNMc
T2diPVEyb1vchSX4oFGNC+LjBB2hk/b48rhXq+cSRRYOfN+zb7yTa97du/gOM/Du
fs7SQ4aVk9u1tFoKXKMvl3EY3jzgALufZoAq2RjeQaCabXHrX3kWaMiWKovrb1ti
9ZClqofLQCJs6JrDGCyKuU6IdSBAMA8CAwEAAaNCMEAwDgYDVR0PAQH/BAQDAgEG
MA8GA1UdEwEB/wQFMAMBAf8wHQYDVR0OBBYEFHRcoUBzLh/m+Tu8q6Ckp1REdE9w
MA0GCSqGSIb3DQEBDAUAA4ICAQCSiUIrmAKY7qnxR+Y1htd7t1Q7ydCmEuMdj/zm
UDmW0dn8BEA1wQTifQnZOy3R/CDJi7HmSCtnEmvCTeIDkDaVcdwY5gNDWinj8YL/
Me8HjiTzWgufmYWK7USk0wZ4Ge0hxndT7WSSZR6DEn4df754sWQ3hYstT7GjVEsj
q6GS59JWDFaK8t6D9JhD94fL4rh7rBLBRKzGotfM19rqXzmL/QSFbnfHgnTxmUso
ihi9d08dMhr5j9/g/LlCZ8Ypif9ALs2t1ME+F2pivgo+HP2PqtjHnlpBwnBzfh6c
gLYXFADVlVdjtbnC+mQOMKZxWHoU18Hqrc8A4HVViGsty5smlSHX32l2hBOH8JPf
3l6kOsOVLjZDbTb6JLOGNp7ukVu5RcTLsGiyesG4gjjSMbvMWfRNldKfo/RGEiLL
MmOeRWti/1t5ty/byWJLs7teNh4h5gfVMeIlTN70VhFpUX4iQdzPvaOt5kUsBTyq
+cDiDtvpc68aDFyJAdpYKuQWlA71oTpULNbA3PXk53zmQwpr5R+LGEHqdy/TL8tY
bTHvjG3+EuL5zYoC9t7x7d431Ozz8M5FslxHoU7mDSYyHoW70yjyC+Zj3kazGJhs
7XBuRRla40kocEFD+pM9vw9yV86O0ZBXqaZQwdL1B05drJCoKG0Bov3ZjOL8KGdF
Mu5DzQ==
-----END CERTIFICATE-----
