Certificate:
    Data:
        Version: 3 (0x2)
        Serial Number:
            38:00:00:00:07:58:f6:72:2b:87:3d:45:0d:00:00:00:00:00:07
        Signature Algorithm: sha256WithRSAEncryption
        Issuer: C = BG, organizationIdentifier = NTRBG-203397356, O = Evrotrust Technologies JSC, OU = Evrotrust Qualified Root Authority, CN = Evrotrust RSA Root CA
        Validity
            Not Before: Jul 10 12:50:59 2019 GMT
            Not After : Jul 10 13:00:59 2029 GMT
        Subject: C = BG, O = Evrotrust Technologies JSC, organizationIdentifier = NTRBG-203397356, CN = Evrotrust Services CA
        Subject Public Key Info:
            Public Key Algorithm: rsaEncryption
                Public-Key: (4096 bit)
                Modulus:
                    00:af:85:2f:a6:e3:3f:87:01:83:71:e4:7d:db:eb:
                    9a:3f:8d:8a:53:1c:6a:6f:b1:3e:37:55:de:96:62:
                    b6:a2:f4:45:d8:26:d6:1d:0c:6f:36:50:f7:4a:99:
                    6e:10:b4:06:80:65:de:8d:fc:93:6b:e7:33:94:77:
                    d3:95:17:63:9e:bc:ee:4e:69:6b:5a:f3:68:8d:d7:
                    eb:89:2f:47:bc:5c:dd:b9:35:32:ab:66:94:62:ea:
                    50:87:01:db:f6:cd:7b:b2:82:84:16:11:91:7f:42:
                    16:26:98:ca:64:9d:74:22:81:7c:99:75:0a:a7:6d:
                    01:fc:83:21:b3:e4:49:84:09:80:50:bb:e0:db:7c:
                    47:e5:96:91:71:60:ae:a2:06:be:44:06:29:24:46:
                    15:56:3f:60:d7:ec:28:71:a0:20:74:46:c5:3d:1b:
                    b2:bb:31:69:c5:68:69:0c:c0:54:8a:96:2b:99:f7:
                    0f:ed:63:c7:8b:1a:3f:ea:b3:f7:d3:4a:6c:03:63:
                    5f:06:6b:27:58:47:8c:50:2c:90:7f:73:1a:42:3f:
                    13:fd:51:1c:6f:2f:70:d3:a1:43:2b:9d:3c:08:78:
                    25:41:08:85:0e:3c:70:e1:25:b7:53:8a:89:d0:50:
                    79:de:35:cc:d4:14:7d:5b:c3:61:8b:36:49:8d:4e:
                    4e:37:c5:33:5b:4d:27:00:77:84:6d:07:e8:0a:5b:
                    11:07:43:68:5c:29:84:62:f9:4e:58:2a:5a:2a:d2:
                    b7:81:e1:25:be:a2:52:38:d7:23:ef:fe:95:6a:bf:
                    5d:aa:81:cc:99:2c:8e:a1:c4:6a:de:0b:8b:02:b5:
                    63:a7:4f:a1:8c:68:17:dd:9e:5f:6b:38:15:c0:48:
                    23:c9:69:3f:25:b4:2b:ad:09:db:f6:ed:fc:f3:19:
                    1f:f6:6c:dc:d2:e6:27:4a:60:c8:bc:7f:82:d8:b0:
                    b5:2f:b9:9c:9f:b3:39:1a:1d:92:ef:50:d8:39:43:
                    c2:3d:34:fc:c1:cd:84:d4:ff:99:fd:41:75:5e:91:
                    35:b1:28:18:6a:da:cc:10:31:36:6f:59:25:fe:f3:
                    2a:62:2a:c9:a5:b1:c7:2b:e9:92:b1:6a:89:78:62:
                    2a:8b:43:65:21:7c:f0:39:6f:39:84:d0:b5:e9:da:
                    01:b7:02:b9:2a:b6:48:46:c4:88:75:99:4b:04:06:
                    58:9f:f9:b2:fc:9a:ec:ec:7a:48:29:7c:ff:a9:9f:
                    33:35:5f:5a:18:87:c4:a9:28:3c:98:0a:99:a0:3e:
                    81:fd:ae:82:9d:72:42:c1:74:b7:d9:f9:56:1d:a8:
                    d0:17:fa:19:69:1a:b5:54:d6:71:41:b4:54:b2:47:
                    5e:d9:87
                Exponent: 65537 (0x10001)
        X509v3 extensions:
            X509v3 Subject Key Identifier: 
                1B:3A:9E:6D:31:91:A1:5B:46:19:84:FE:9C:98:60:2C:09:D3:33:2E
            X509v3 Certificate Policies: 
                Policy: X509v3 Any Policy
                  CPS: http://www.evrotrust.com/cps
            X509v3 CRL Distribution Points: 
                Full Name:
                  URI:http://ca.evrotrust.com/crl/EvrotrustRSARootCA.crl
            Authority Information Access: 
                CA Issuers - URI:http://ca.evrotrust.com/aia/EvrotrustRSARootCA.crt
                OCSP - URI:http://ca.evrotrust.com/ocsp
            X509v3 Key Usage: critical
                Digital Signature, Certificate Sign, CRL Sign
            X509v3 Basic Constraints: critical
                CA:TRUE, pathlen:0
            X509v3 Subject Alternative Name: 
                email:servicesca@evrotrust.com, URI:http://www.evrotrust.com
            X509v3 Authority Key Identifier: 
                74:5C:A1:40:73:2E:1F:E6:F9:3B:BC:AB:A0:A4:A7:54:44:74:4F:70
    Signature Algorithm: sha256WithRSAEncryption
    Signature Value:
        5e:1c:98:fa:6f:b1:f9:bf:61:85:8e:d4:4f:85:b8:7d:e9:2c:
        74:ff:3a:9f:4c:4e:68:ca:34:cd:c3:8e:80:f4:3e:e2:88:28:
        93:75:7b:2a:05:5a:a9:78:13:bf:70:01:37:2c:7e:5e:7b:64:
        80:31:82:d5:49:54:b4:c3:fc:88:17:46:85:c3:09:c6:5c:44:
        57:72:2a:69:25:60:ae:a5:b7:bd:84:17:93:f1:39:e3:85:9e:
        41:03:f6:61:e0:7c:17:44:2f:ad:5a:43:42:07:45:d6:50:19:
        86:1f:46:e4:c4:7b:a0:5b:70:d0:d9:d7:21:a6:3b:2c:a0:26:
        c7:66:87:cf:86:e6:76:13:fb:7e:3f:14:af:bf:16:5f:06:e3:
        33:d5:d2:d6:9e:e3:78:6e:8c:db:34:8e:80:51:f9:ab:b1:bf:
        5c:97:9b:a2:fc:0d:09:8a:d5:ba:5b:69:a4:30:a8:15:4d:d5:
        3b:1d:75:68:31:6e:87:e8:fb:03:a5:9e:13:4f:9c:57:b8:69:
        48:5f:2a:4b:84:5b:92:4d:2a:e9:4e:af:84:23:bb:8f:0b:3d:
        0d:65:de:bf:bd:a4:42:85:e9:af:39:0a:60:05:f4:8c:3a:6f:
        3c:56:c5:a9:2d:cf:99:b3:8c:d4:b0:6a:4d:35:0d:e2:ea:88:
        d1:81:c5:16:8c:77:be:e9:aa:f9:62:1f:53:aa:f0:6e:8b:55:
        17:82:d3:31:f8:0e:40:b3:7a:8e:30:c6:78:91:80:8e:6d:f0:
        8d:c6:40:26:f8:81:45:32:76:76:7e:5e:e8:8c:0f:42:1f:68:
        48:07:d6:4d:09:47:75:7e:2b:58:6c:65:e8:31:89:88:39:17:
        bf:0c:a6:ad:96:53:47:7f:69:6e:d6:d7:f1:3a:df:c6:d0:fe:
        77:29:99:2b:d8:dc:f1:93:5d:96:69:5e:f9:f1:8f:5a:d7:35:
        3f:f2:78:e0:2d:23:d4:41:4f:fa:43:49:fb:ff:35:9a:70:0c:
        4d:a1:f1:0c:6d:74:5e:fd:a0:09:72:22:22:a8:15:c2:2a:fb:
        13:ee:51:1a:24:5f:2e:03:0b:9e:84:38:f8:ac:18:d6:32:11:
        38:39:ba:3e:49:01:27:40:c7:11:6c:8f:e7:37:33:48:91:78:
        fa:60:df:f1:3f:52:37:c6:e1:c9:f6:d8:57:38:a0:0a:4a:28:
        66:f9:2a:ee:bd:bc:a0:05:7e:a7:4b:ee:c1:50:42:cc:ad:5e:
        f2:4d:28:4c:69:3a:01:b2:ba:d2:2b:f9:eb:5a:51:35:3f:07:
        85:a3:f1:38:2c:b1:ba:92:68:d7:63:84:3e:51:73:56:13:08:
        79:ea:94:a0:75:c4:9c:39
-----BEGIN CERTIFICATE-----
MIIHOjCCBSKgAwIBAgITOAAAAAdY9nIrhz1FDQAAAAAABzANBgkqhkiG9w0BAQsF
ADCBmTELMAkGA1UEBhMCQkcxGDAWBgNVBGETD05UUkJHLTIwMzM5NzM1NjEjMCEG
A1UEChMaRXZyb3RydXN0IFRlY2hub2xvZ2llcyBKU0MxKzApBgNVBAsTIkV2cm90
cnVzdCBRdWFsaWZpZWQgUm9vdCBBdXRob3JpdHkxHjAcBgNVBAMTFUV2cm90cnVz
dCBSU0EgUm9vdCBDQTAeFw0xOTA3MTAxMjUwNTlaFw0yOTA3MTAxMzAwNTlaMGwx
CzAJBgNVBAYTAkJHMSMwIQYDVQQKDBpFdnJvdHJ1c3QgVGVjaG5vbG9naWVzIEpT
QzEYMBYGA1UEYQwPTlRSQkctMjAzMzk3MzU2MR4wHAYDVQQDDBVFdnJvdHJ1c3Qg
U2VydmljZXMgQ0EwggIiMA0GCSqGSIb3DQEBAQUAA4ICDwAwggIKAoICAQCvhS+m
4z+HAYNx5H3b65o/jYpTHGpvsT43Vd6WYrai9EXYJtYdDG82UPdKmW4QtAaAZd6N
/JNr5zOUd9OVF2OevO5OaWta82iN1+uJL0e8XN25NTKrZpRi6lCHAdv2zXuygoQW
EZF/QhYmmMpknXQigXyZdQqnbQH8gyGz5EmECYBQu+DbfEfllpFxYK6iBr5EBikk
RhVWP2DX7ChxoCB0RsU9G7K7MWnFaGkMwFSKliuZ9w/tY8eLGj/qs/fTSmwDY18G
aydYR4xQLJB/cxpCPxP9URxvL3DToUMrnTwIeCVBCIUOPHDhJbdTionQUHneNczU
FH1bw2GLNkmNTk43xTNbTScAd4RtB+gKWxEHQ2hcKYRi+U5YKloq0reB4SW+olI4
1yPv/pVqv12qgcyZLI6hxGreC4sCtWOnT6GMaBfdnl9rOBXASCPJaT8ltCutCdv2
7fzzGR/2bNzS5idKYMi8f4LYsLUvuZyfszkaHZLvUNg5Q8I9NPzBzYTU/5n9QXVe
kTWxKBhq2swQMTZvWSX+8ypiKsmlsccr6ZKxaol4YiqLQ2UhfPA5bzmE0LXp2gG3
ArkqtkhGxIh1mUsEBlif+bL8muzsekgpfP+pnzM1X1oYh8SpKDyYCpmgPoH9roKd
ckLBdLfZ+VYdqNAX+hlpGrVU1nFBtFSyR17ZhwIDAQABo4IBpTCCAaEwHQYDVR0O
BBYEFBs6nm0xkaFbRhmE/pyYYCwJ0zMuMD0GA1UdIAQ2MDQwMgYEVR0gADAqMCgG
CCsGAQUFBwIBFhxodHRwOi8vd3d3LmV2cm90cnVzdC5jb20vY3BzMEMGA1UdHwQ8
MDowOKA2oDSGMmh0dHA6Ly9jYS5ldnJvdHJ1c3QuY29tL2NybC9FdnJvdHJ1c3RS
U0FSb290Q0EuY3JsMHgGCCsGAQUFBwEBBGwwajA+BggrBgEFBQcwAoYyaHR0cDov
L2NhLmV2cm90cnVzdC5jb20vYWlhL0V2cm90cnVzdFJTQVJvb3RDQS5jcnQwKAYI
KwYBBQUHMAGGHGh0dHA6Ly9jYS5ldnJvdHJ1c3QuY29tL29jc3AwDgYDVR0PAQH/
BAQDAgGGMBIGA1UdEwEB/wQIMAYBAf8CAQAwPQYDVR0RBDYwNIEYc2VydmljZXNj
YUBldnJvdHJ1c3QuY29thhhodHRwOi8vd3d3LmV2cm90cnVzdC5jb20wHwYDVR0j
BBgwFoAUdFyhQHMuH+b5O7yroKSnVER0T3AwDQYJKoZIhvcNAQELBQADggIBAF4c
mPpvsfm/YYWO1E+FuH3pLHT/Op9MTmjKNM3DjoD0PuKIKJN1eyoFWql4E79wATcs
fl57ZIAxgtVJVLTD/IgXRoXDCcZcRFdyKmklYK6lt72EF5PxOeOFnkED9mHgfBdE
L61aQ0IHRdZQGYYfRuTEe6BbcNDZ1yGmOyygJsdmh8+G5nYT+34/FK+/Fl8G4zPV
0tae43hujNs0joBR+auxv1yXm6L8DQmK1bpbaaQwqBVN1TsddWgxbofo+wOlnhNP
nFe4aUhfKkuEW5JNKulOr4Qju48LPQ1l3r+9pEKF6a85CmAF9Iw6bzxWxaktz5mz
jNSwak01DeLqiNGBxRaMd77pqvliH1Oq8G6LVReC0zH4DkCzeo4wxniRgI5t8I3G
QCb4gUUydnZ+XuiMD0IfaEgH1k0JR3V+K1hsZegxiYg5F78Mpq2WU0d/aW7W1/E6
38bQ/ncpmSvY3PGTXZZpXvnxj1rXNT/yeOAtI9RBT/pDSfv/NZpwDE2h8QxtdF79
oAlyIiKoFcIq+xPuURokXy4DC56EOPisGNYyETg5uj5JASdAxxFsj+c3M0iRePpg
3/E/UjfG4cn22Fc4oApKKGb5Ku69vKAFfqdL7sFQQsytXvJNKExpOgGyutIr+eta
UTU/B4Wj8TgssbqSaNdjhD5Rc1YTCHnqlKB1xJw5
-----END CERTIFICATE-----
