Certificate:
    Data:
        Version: 3 (0x2)
        Serial Number:
            38:00:00:00:11:c0:d7:74:88:1b:c3:ec:6a:00:00:00:00:00:11
        Signature Algorithm: sha256WithRSAEncryption
        Issuer: C = BG, organizationIdentifier = NTRBG-203397356, O = Evrotrust Technologies JSC, OU = Evrotrust Qualified Root Authority, CN = Evrotrust RSA Root CA
        Validity
            Not Before: Aug 16 08:35:28 2024 GMT
            Not After : Aug 16 08:45:28 2034 GMT
        Subject: CN = Evrotrust RSA QOperational CA 2024, OU = Qualified Operational CA, organizationIdentifier = NTRBG-203397356, O = Evrotrust Technologies JSC, C = BG
        Subject Public Key Info:
            Public Key Algorithm: rsaEncryption
                Public-Key: (4096 bit)
                Modulus:
                    00:c0:7b:0c:c2:19:54:d5:a5:65:df:df:99:34:95:
                    e9:5b:43:20:a6:5a:75:a1:ef:dd:7e:90:e2:c4:a8:
                    11:4e:40:4b:bb:76:c0:a0:05:9a:ea:b5:db:12:46:
                    92:19:90:43:02:65:54:1c:be:92:63:8f:bf:46:7d:
                    11:bf:24:b7:ec:be:fa:02:75:ef:b1:3a:d0:cb:be:
                    0d:37:ce:18:03:0c:cc:b1:86:62:d9:f6:b5:d1:56:
                    e6:aa:0c:ba:66:8a:5d:38:b7:5e:83:d4:80:07:c8:
                    3e:a4:08:56:0e:ea:2f:3c:f4:f8:fb:9f:24:52:16:
                    f6:69:78:f5:2c:6e:bf:7a:43:b0:d4:a5:53:1b:1a:
                    f4:c5:ae:60:6c:08:56:36:8a:40:a0:8c:a3:1c:ba:
                    e0:80:ea:76:81:42:04:eb:93:8b:31:d2:84:c2:14:
                    0b:e7:2a:76:e3:c9:d2:a3:4c:85:f3:ce:a2:22:3b:
                    ec:da:83:a8:7d:17:9b:35:c4:91:e8:3d:86:49:6f:
                    65:01:1f:5a:e6:ff:67:72:27:84:d4:2a:99:d3:af:
                    64:bb:08:8d:c1:2f:48:94:7f:9d:3d:d4:27:95:91:
                    4a:ec:8e:1d:28:67:c9:a2:cd:01:29:bf:ec:8f:da:
                    01:e9:47:b6:0d:dc:11:d9:37:fa:32:38:7f:09:df:
                    2d:4f:78:9e:9a:e6:8c:4b:d7:72:37:c4:34:8a:1e:
                    8a:27:34:c0:ce:81:55:ba:ea:b7:22:a1:29:62:c8:
                    90:36:2e:d8:be:c8:82:d8:ac:a6:87:39:9e:b0:0f:
                    55:1e:e7:f6:3a:b2:ed:6b:b9:06:a6:02:e1:31:d1:
                    fd:38:dc:42:71:bc:07:aa:4b:a9:46:97:4b:3b:f4:
                    f4:3a:fe:40:3c:dc:53:94:25:fb:4f:ba:65:ad:9c:
                    fa:18:ea:0c:82:00:49:db:2d:85:07:8a:f8:57:e8:
                    5f:7f:59:0e:9f:51:ff:49:b5:cb:87:5e:53:61:85:
                    6d:6a:2d:a5:c3:1c:01:67:a9:e2:f5:67:dd:27:3c:
                    5c:3e:2d:23:e6:ce:34:d6:9c:59:b6:e7:71:7f:7a:
                    a9:ca:0a:85:f5:55:83:e9:5d:19:28:98:35:b2:7e:
                    97:0b:9d:57:8a:c7:6e:ea:ed:5c:20:19:d4:1f:c8:
                    ea:2b:53:81:23:99:47:10:92:42:fd:33:f5:4a:f8:
                    46:0a:8c:30:03:be:60:7b:63:0e:46:55:5d:c4:b0:
                    bf:9e:99:22:32:12:e2:de:c5:09:31:7a:35:e6:5c:
                    50:85:be:d1:50:88:e5:66:62:29:f2:fd:d7:62:42:
                    2f:d0:5b:1d:cd:2b:de:ad:ee:f8:e0:b0:18:fc:44:
                    7a:de:0b
                Exponent: 65537 (0x10001)
        X509v3 extensions:
            X509v3 Subject Key Identifier: 
                89:2B:14:33:DF:16:A3:59:3C:DE:FD:E2:03:C8:94:00:DA:B9:FA:A8
            X509v3 Authority Key Identifier: 
                74:5C:A1:40:73:2E:1F:E6:F9:3B:BC:AB:A0:A4:A7:54:44:74:4F:70
            X509v3 CRL Distribution Points: 
                Full Name:
                  URI:http://ca.evrotrust.com/crl/EvrotrustRSARootCA.crl
            Authority Information Access: 
                CA Issuers - URI:http://ca.evrotrust.com/aia/EvrotrustRSARootCA.crt
                OCSP - URI:http://ca.evrotrust.com/ocsp
            X509v3 Certificate Policies: 
                Policy: X509v3 Any Policy
                  CPS: http://www.evrotrust.com/cps
            X509v3 Basic Constraints: critical
                CA:TRUE, pathlen:0
            X509v3 Key Usage: critical
                Digital Signature, Certificate Sign, CRL Sign
            X509v3 Subject Alternative Name: 
                email:ca2024@evrotrust.com, URI:http://www.evrotrust.com
    Signature Algorithm: sha256WithRSAEncryption
    Signature Value:
        be:84:f4:8d:c1:85:e5:18:eb:62:f3:26:c9:d5:e5:47:14:53:
        3a:cb:31:bc:5d:7f:0e:8f:e5:90:05:38:6e:b1:d4:f2:04:b4:
        2c:4e:c3:03:ab:3b:74:f9:9f:89:72:fc:cd:a2:ab:8f:d8:e6:
        96:65:1f:e1:e6:4b:3c:cd:9b:26:1e:d3:4b:ce:a7:a9:17:ef:
        bd:21:e4:75:72:bf:6f:21:52:c3:85:1f:4d:c2:e9:72:00:f0:
        40:05:04:6f:c7:17:11:8c:d3:a4:c1:4c:5f:96:ab:90:e5:5b:
        11:fe:cc:2c:d2:94:cd:25:9b:77:49:04:1a:db:21:48:89:31:
        07:4a:15:cb:5c:b1:20:51:cc:df:94:7e:c9:ee:88:e9:5e:03:
        86:d8:e1:f1:c0:3c:ab:5e:b1:ab:45:44:82:ba:dc:c8:01:44:
        46:e6:af:ac:74:54:f5:8c:9c:39:2f:f6:4d:e7:b5:c1:3f:c3:
        9e:8a:16:8b:34:92:e4:5b:a4:d8:93:a1:a5:79:44:73:3e:66:
        14:d4:87:32:31:79:e4:09:d1:6e:7b:19:b1:ba:ee:35:60:6b:
        e2:e3:70:9b:83:a8:75:8a:9c:c9:1f:4b:4d:af:75:12:b9:82:
        59:ad:0c:ec:41:2e:7c:2d:e7:1a:92:1c:37:5b:43:ed:e8:f9:
        57:be:b1:32:34:7c:80:ec:fc:72:30:3b:f1:0a:ec:4b:41:74:
        33:2c:8c:0d:02:06:f6:65:9b:8a:d0:b7:f0:07:09:0f:f5:bb:
        bf:9d:c3:fb:16:f8:7b:3e:a7:5e:92:32:7b:9d:b4:54:02:b0:
        89:e5:74:39:93:1b:76:be:77:af:d7:a9:86:da:1a:81:28:dd:
        a6:49:54:e0:18:4a:10:b7:ab:21:37:d7:33:ee:2d:de:2c:ba:
        48:bd:0f:53:7c:8f:41:bc:d5:1d:51:91:ca:47:6a:e8:1b:e3:
        6e:bb:66:e3:1f:89:85:fc:5d:d6:61:df:6e:aa:8e:9e:f2:ed:
        7f:c2:3e:18:4b:8f:e2:71:51:b4:51:91:04:fa:15:7f:ea:99:
        4a:8a:97:6f:f1:7f:89:be:7d:58:6b:2c:2f:2e:66:33:4c:77:
        11:b7:5c:5b:fc:65:70:a7:7e:c8:a0:97:3a:ec:86:f4:d5:89:
        82:c1:a1:dc:d2:da:e4:75:af:70:ba:86:2a:be:d3:dd:c5:c7:
        57:46:2a:76:72:a5:0d:1d:05:d7:5a:80:d6:2b:53:6e:fb:01:
        69:90:40:9d:fa:52:3d:71:76:01:29:2a:4c:78:55:44:1d:30:
        26:df:68:e4:49:65:a8:81:bb:99:e9:c1:16:f3:48:d3:70:64:
        d8:fb:d7:e7:07:55:a4:ab
-----BEGIN CERTIFICATE-----
MIIHaDCCBVCgAwIBAgITOAAAABHA13SIG8PsagAAAAAAETANBgkqhkiG9w0BAQsF
ADCBmTELMAkGA1UEBhMCQkcxGDAWBgNVBGETD05UUkJHLTIwMzM5NzM1NjEjMCEG
A1UEChMaRXZyb3RydXN0IFRlY2hub2xvZ2llcyBKU0MxKzApBgNVBAsTIkV2cm90
cnVzdCBRdWFsaWZpZWQgUm9vdCBBdXRob3JpdHkxHjAcBgNVBAMTFUV2cm90cnVz
dCBSU0EgUm9vdCBDQTAeFw0yNDA4MTYwODM1MjhaFw0zNDA4MTYwODQ1MjhaMIGc
MSswKQYDVQQDDCJFdnJvdHJ1c3QgUlNBIFFPcGVyYXRpb25hbCBDQSAyMDI0MSEw
HwYDVQQLDBhRdWFsaWZpZWQgT3BlcmF0aW9uYWwgQ0ExGDAWBgNVBGEMD05UUkJH
LTIwMzM5NzM1NjEjMCEGA1UECgwaRXZyb3RydXN0IFRlY2hub2xvZ2llcyBKU0Mx
CzAJBgNVBAYTAkJHMIICIjANBgkqhkiG9w0BAQEFAAOCAg8AMIICCgKCAgEAwHsM
whlU1aVl39+ZNJXpW0Mgplp1oe/dfpDixKgRTkBLu3bAoAWa6rXbEkaSGZBDAmVU
HL6SY4+/Rn0RvyS37L76AnXvsTrQy74NN84YAwzMsYZi2fa10Vbmqgy6ZopdOLde
g9SAB8g+pAhWDuovPPT4+58kUhb2aXj1LG6/ekOw1KVTGxr0xa5gbAhWNopAoIyj
HLrggOp2gUIE65OLMdKEwhQL5yp248nSo0yF886iIjvs2oOofRebNcSR6D2GSW9l
AR9a5v9ncieE1CqZ069kuwiNwS9IlH+dPdQnlZFK7I4dKGfJos0BKb/sj9oB6Ue2
DdwR2Tf6Mjh/Cd8tT3iemuaMS9dyN8Q0ih6KJzTAzoFVuuq3IqEpYsiQNi7YvsiC
2KymhzmesA9VHuf2OrLta7kGpgLhMdH9ONxCcbwHqkupRpdLO/T0Ov5APNxTlCX7
T7plrZz6GOoMggBJ2y2FB4r4V+hff1kOn1H/SbXLh15TYYVtai2lwxwBZ6ni9Wfd
JzxcPi0j5s401pxZtudxf3qpygqF9VWD6V0ZKJg1sn6XC51Xisdu6u1cIBnUH8jq
K1OBI5lHEJJC/TP1SvhGCowwA75ge2MORlVdxLC/npkiMhLi3sUJMXo15lxQhb7R
UIjlZmIp8v3XYkIv0FsdzSvere744LAY/ER63gsCAwEAAaOCAaIwggGeMB0GA1Ud
DgQWBBSJKxQz3xajWTze/eIDyJQA2rn6qDAfBgNVHSMEGDAWgBR0XKFAcy4f5vk7
vKugpKdURHRPcDBDBgNVHR8EPDA6MDigNqA0hjJodHRwOi8vY2EuZXZyb3RydXN0
LmNvbS9jcmwvRXZyb3RydXN0UlNBUm9vdENBLmNybDB4BggrBgEFBQcBAQRsMGow
PgYIKwYBBQUHMAKGMmh0dHA6Ly9jYS5ldnJvdHJ1c3QuY29tL2FpYS9FdnJvdHJ1
c3RSU0FSb290Q0EuY3J0MCgGCCsGAQUFBzABhhxodHRwOi8vY2EuZXZyb3RydXN0
LmNvbS9vY3NwMD4GA1UdIAQ3MDUwMwYEVR0gADArMCkGCCsGAQUFBwIBFh1odHRw
Oi8vd3d3LmV2cm90cnVzdC5jb20vY3BzADASBgNVHRMBAf8ECDAGAQH/AgEAMA4G
A1UdDwEB/wQEAwIBhjA5BgNVHREEMjAwgRRjYTIwMjRAZXZyb3RydXN0LmNvbYYY
aHR0cDovL3d3dy5ldnJvdHJ1c3QuY29tMA0GCSqGSIb3DQEBCwUAA4ICAQC+hPSN
wYXlGOti8ybJ1eVHFFM6yzG8XX8Oj+WQBThusdTyBLQsTsMDqzt0+Z+JcvzNoquP
2OaWZR/h5ks8zZsmHtNLzqepF++9IeR1cr9vIVLDhR9NwulyAPBABQRvxxcRjNOk
wUxflquQ5VsR/sws0pTNJZt3SQQa2yFIiTEHShXLXLEgUczflH7J7ojpXgOG2OHx
wDyrXrGrRUSCutzIAURG5q+sdFT1jJw5L/ZN57XBP8OeihaLNJLkW6TYk6GleURz
PmYU1IcyMXnkCdFuexmxuu41YGvi43Cbg6h1ipzJH0tNr3USuYJZrQzsQS58Leca
khw3W0Pt6PlXvrEyNHyA7PxyMDvxCuxLQXQzLIwNAgb2ZZuK0LfwBwkP9bu/ncP7
Fvh7PqdekjJ7nbRUArCJ5XQ5kxt2vnev16mG2hqBKN2mSVTgGEoQt6shN9cz7i3e
LLpIvQ9TfI9BvNUdUZHKR2roG+Nuu2bjH4mF/F3WYd9uqo6e8u1/wj4YS4/icVG0
UZEE+hV/6plKipdv8X+Jvn1YaywvLmYzTHcRt1xb/GVwp37IoJc67Ib01YmCwaHc
0trkda9wuoYqvtPdxcdXRip2cqUNHQXXWoDWK1Nu+wFpkECd+lI9cXYBKSpMeFVE
HTAm32jkSWWogbuZ6cEW80jTcGTY+9fnB1Wkqw==
-----END CERTIFICATE-----
